target datalayout = "e-m:e-p270:32:32-p271:32:32-p272:64:64-i64:64-i128:128-f80:128-n8:16:32:64-S128"
target triple = "x86_64-pc-linux-gnu"

%struct.lua_State = type { %struct.GCRef, i8, i8, i8, i8, %struct.MRef, %struct.GCRef, ptr, ptr, %struct.MRef, %struct.MRef, %struct.GCRef, %struct.GCRef, ptr, i32 }
%struct.MRef = type { i64 }
%struct.GCRef = type { i64 }
%union.TValue = type { i64 }

@.str.23 = private unnamed_addr constant [14 x i8] c"external hook\00", align 1

; Function Attrs: nounwind uwtable
define internal ptr @unmakemask(i32 noundef %0, ptr noundef %1) #0 {
  %3 = alloca i32, align 4
  %4 = alloca ptr, align 8
  %5 = alloca i32, align 4
  store i32 %0, ptr %3, align 4, !tbaa !19
  store ptr %1, ptr %4, align 8, !tbaa !20
  call void @llvm.lifetime.start.p0(i64 4, ptr %5) #8
  store i32 0, ptr %5, align 4, !tbaa !19
  %6 = load i32, ptr %3, align 4, !tbaa !19
  %7 = and i32 %6, 1
  %8 = icmp ne i32 %7, 0
  br i1 %8, label %9, label %15

9:                                                ; preds = %2
  %10 = load ptr, ptr %4, align 8, !tbaa !20
  %11 = load i32, ptr %5, align 4, !tbaa !19
  %12 = add nsw i32 %11, 1
  store i32 %12, ptr %5, align 4, !tbaa !19
  %13 = sext i32 %11 to i64
  %14 = getelementptr inbounds i8, ptr %10, i64 %13
  store i8 99, ptr %14, align 1, !tbaa !17
  br label %15

15:                                               ; preds = %9, %2
  %16 = load i32, ptr %3, align 4, !tbaa !19
  %17 = and i32 %16, 2
  %18 = icmp ne i32 %17, 0
  br i1 %18, label %19, label %25

19:                                               ; preds = %15
  %20 = load ptr, ptr %4, align 8, !tbaa !20
  %21 = load i32, ptr %5, align 4, !tbaa !19
  %22 = add nsw i32 %21, 1
  store i32 %22, ptr %5, align 4, !tbaa !19
  %23 = sext i32 %21 to i64
  %24 = getelementptr inbounds i8, ptr %20, i64 %23
  store i8 114, ptr %24, align 1, !tbaa !17
  br label %25

25:                                               ; preds = %19, %15
  %26 = load i32, ptr %3, align 4, !tbaa !19
  %27 = and i32 %26, 4
  %28 = icmp ne i32 %27, 0
  br i1 %28, label %29, label %35

29:                                               ; preds = %25
  %30 = load ptr, ptr %4, align 8, !tbaa !20
  %31 = load i32, ptr %5, align 4, !tbaa !19
  %32 = add nsw i32 %31, 1
  store i32 %32, ptr %5, align 4, !tbaa !19
  %33 = sext i32 %31 to i64
  %34 = getelementptr inbounds i8, ptr %30, i64 %33
  store i8 108, ptr %34, align 1, !tbaa !17
  br label %35

35:                                               ; preds = %29, %25
  %36 = load ptr, ptr %4, align 8, !tbaa !20
  %37 = load i32, ptr %5, align 4, !tbaa !19
  %38 = sext i32 %37 to i64
  %39 = getelementptr inbounds i8, ptr %36, i64 %38
  store i8 0, ptr %39, align 1, !tbaa !17
  %40 = load ptr, ptr %4, align 8, !tbaa !20
  call void @llvm.lifetime.end.p0(i64 4, ptr %5) #8
  ret ptr %40
}

; Function Attrs: nounwind uwtable
define internal i32 @lj_cf_debug_gethook(ptr noundef %0) #0 {
  %2 = alloca ptr, align 8
  %3 = alloca [5 x i8], align 1
  %4 = alloca i32, align 4
  %5 = alloca ptr, align 8
  store ptr %0, ptr %2, align 8, !tbaa !4
  call void @llvm.lifetime.start.p0(i64 5, ptr %3) #8
  call void @llvm.lifetime.start.p0(i64 4, ptr %4) #8
  %6 = load ptr, ptr %2, align 8, !tbaa !4
  %7 = call i32 @lua_gethookmask(ptr noundef %6)
  store i32 %7, ptr %4, align 4, !tbaa !19
  call void @llvm.lifetime.start.p0(i64 8, ptr %5) #8
  %8 = load ptr, ptr %2, align 8, !tbaa !4
  %9 = call ptr @lua_gethook(ptr noundef %8)
  store ptr %9, ptr %5, align 8, !tbaa !42
  %10 = load ptr, ptr %5, align 8, !tbaa !42
  %11 = icmp ne ptr %10, null
  br i1 %11, label %12, label %17

12:                                               ; preds = %1
  %13 = load ptr, ptr %5, align 8, !tbaa !42
  %14 = icmp ne ptr %13, @hookf
  br i1 %14, label %15, label %17

15:                                               ; preds = %12
  %16 = load ptr, ptr %2, align 8, !tbaa !4
  call void @lua_pushlstring(ptr noundef %16, ptr noundef @.str.23, i64 noundef 13)
  br label %23

17:                                               ; preds = %12, %1
  %18 = load ptr, ptr %2, align 8, !tbaa !4
  %19 = getelementptr inbounds nuw %struct.lua_State, ptr %18, i32 0, i32 8
  %20 = load ptr, ptr %19, align 8, !tbaa !9
  %21 = getelementptr inbounds nuw %union.TValue, ptr %20, i32 1
  store ptr %21, ptr %19, align 8, !tbaa !9
  store i64 -9223372036854775704, ptr %20, align 8, !tbaa !17
  %22 = load ptr, ptr %2, align 8, !tbaa !4
  call void @lua_rawget(ptr noundef %22, i32 noundef -10000)
  br label %23

23:                                               ; preds = %17, %15
  %24 = load ptr, ptr %2, align 8, !tbaa !4
  %25 = load i32, ptr %4, align 4, !tbaa !19
  %26 = getelementptr inbounds [5 x i8], ptr %3, i64 0, i64 0
  %27 = call ptr @unmakemask(i32 noundef %25, ptr noundef %26)
  call void @lua_pushstring(ptr noundef %24, ptr noundef %27)
  %28 = load ptr, ptr %2, align 8, !tbaa !4
  %29 = load ptr, ptr %2, align 8, !tbaa !4
  %30 = call i32 @lua_gethookcount(ptr noundef %29)
  %31 = sext i32 %30 to i64
  call void @lua_pushinteger(ptr noundef %28, i64 noundef %31)
  call void @llvm.lifetime.end.p0(i64 8, ptr %5) #8
  call void @llvm.lifetime.end.p0(i64 4, ptr %4) #8
  call void @llvm.lifetime.end.p0(i64 5, ptr %3) #8
  ret i32 3
}