; Function Attrs: nounwind uwtable
define internal noundef i32 @lj_cf_debug_gethook(ptr noundef %0) #0 {
  %2 = alloca [5 x i8], align 1
  call void @llvm.lifetime.start.p0(i64 5, ptr nonnull %2) #10
  %3 = tail call i32 @lua_gethookmask(ptr noundef %0) #10
  %4 = tail call ptr @lua_gethook(ptr noundef %0) #10
  %5 = icmp ne ptr %4, null
  %6 = icmp ne ptr %4, @hookf
  %or.cond = and i1 %5, %6
  br i1 %or.cond, label %7, label %8

7:                                                ; preds = %1
  tail call void @lua_pushlstring(ptr noundef %0, ptr noundef nonnull @.str.23, i64 noundef 13) #10
  br label %12

8:                                                ; preds = %1
  %9 = getelementptr inbounds nuw i8, ptr %0, i64 40
  %10 = load ptr, ptr %9, align 8, !tbaa !4
  %11 = getelementptr inbounds nuw i8, ptr %10, i64 8
  store ptr %11, ptr %9, align 8, !tbaa !4
  store i64 -9223372036854775704, ptr %10, align 8, !tbaa !15
  tail call void @lua_rawget(ptr noundef %0, i32 noundef -10000) #10
  br label %12

12:                                               ; preds = %8, %7
  %13 = and i32 %3, 1
  %.not.i = icmp eq i32 %13, 0
  br i1 %.not.i, label %15, label %14

14:                                               ; preds = %12
  store i8 99, ptr %2, align 1, !tbaa !15
  br label %15

15:                                               ; preds = %14, %12
  %.0.i = phi i32 [ 1, %14 ], [ 0, %12 ]
  %16 = and i32 %3, 2
  %.not11.i = icmp eq i32 %16, 0
  br i1 %.not11.i, label %21, label %17

17:                                               ; preds = %15
  %18 = add nuw nsw i32 %.0.i, 1
  %19 = zext nneg i32 %.0.i to i64
  %20 = getelementptr inbounds nuw i8, ptr %2, i64 %19
  store i8 114, ptr %20, align 1, !tbaa !15
  br label %21

21:                                               ; preds = %17, %15
  %.1.i = phi i32 [ %18, %17 ], [ %.0.i, %15 ]
  %22 = and i32 %3, 4
  %.not12.i = icmp eq i32 %22, 0
  br i1 %.not12.i, label %unmakemask.exit, label %23

23:                                               ; preds = %21
  %24 = add nuw nsw i32 %.1.i, 1
  %25 = zext nneg i32 %.1.i to i64
  %26 = getelementptr inbounds nuw i8, ptr %2, i64 %25
  store i8 108, ptr %26, align 1, !tbaa !15
  br label %unmakemask.exit

unmakemask.exit:                                  ; preds = %21, %23
  %.2.i = phi i32 [ %24, %23 ], [ %.1.i, %21 ]
  %27 = zext nneg i32 %.2.i to i64
  %28 = getelementptr inbounds nuw i8, ptr %2, i64 %27
  store i8 0, ptr %28, align 1, !tbaa !15
  call void @lua_pushstring(ptr noundef %0, ptr noundef nonnull %2) #10
  %29 = call i32 @lua_gethookcount(ptr noundef %0) #10
  %30 = sext i32 %29 to i64
  call void @lua_pushinteger(ptr noundef %0, i64 noundef %30) #10
  call void @llvm.lifetime.end.p0(i64 5, ptr nonnull %2) #10
  ret i32 3
}